target datalayout = "e-m:e-p270:32:32-p271:32:32-p272:64:64-i64:64-i128:128-f80:128-n8:16:32:64-S128"
target triple = "x86_64-pc-linux-gnu"

%struct.loader_data_st = type { ptr, i32, ptr, ptr, ptr, i8 }

; Function Attrs: nounwind uwtable
define internal ptr @get_loader_store(ptr noundef %0) #0 {
  %2 = alloca ptr, align 8
  store ptr %0, ptr %2, align 8, !tbaa !19
  %3 = load ptr, ptr %2, align 8, !tbaa !19
  %4 = call ptr @ossl_lib_ctx_get_data(ptr noundef %3, i32 noundef 15)
  ret ptr %4
}

; Function Attrs: nounwind uwtable
define internal i32 @put_loader_in_store(ptr noundef %0, ptr noundef %1, ptr noundef %2, ptr noundef %3, ptr noundef %4, ptr noundef %5) #0 {
  %7 = alloca i32, align 4
  %8 = alloca ptr, align 8
  %9 = alloca ptr, align 8
  %10 = alloca ptr, align 8
  %11 = alloca ptr, align 8
  %12 = alloca ptr, align 8
  %13 = alloca ptr, align 8
  %14 = alloca ptr, align 8
  %15 = alloca ptr, align 8
  %16 = alloca i32, align 4
  %17 = alloca i32, align 4
  store ptr %0, ptr %8, align 8, !tbaa !16
  store ptr %1, ptr %9, align 8, !tbaa !16
  store ptr %2, ptr %10, align 8, !tbaa !31
  store ptr %3, ptr %11, align 8, !tbaa !21
  store ptr %4, ptr %12, align 8, !tbaa !21
  store ptr %5, ptr %13, align 8, !tbaa !16
  call void @llvm.lifetime.start.p0(i64 8, ptr %14) #6
  %18 = load ptr, ptr %13, align 8, !tbaa !16
  store ptr %18, ptr %14, align 8, !tbaa !26
  call void @llvm.lifetime.start.p0(i64 8, ptr %15) #6
  call void @llvm.lifetime.start.p0(i64 4, ptr %16) #6
  %19 = load ptr, ptr %14, align 8, !tbaa !26
  %20 = getelementptr inbounds nuw %struct.loader_data_st, ptr %19, i32 0, i32 0
  %21 = load ptr, ptr %20, align 8, !tbaa !22
  %22 = call ptr @ossl_namemap_stored(ptr noundef %21)
  store ptr %22, ptr %15, align 8, !tbaa !29
  %23 = icmp eq ptr %22, null
  br i1 %23, label %29, label %24

24:                                               ; preds = %6
  %25 = load ptr, ptr %15, align 8, !tbaa !29
  %26 = load ptr, ptr %11, align 8, !tbaa !21
  %27 = call i32 @ossl_namemap_name2num(ptr noundef %25, ptr noundef %26)
  store i32 %27, ptr %16, align 4, !tbaa !8
  %28 = icmp eq i32 %27, 0
  br i1 %28, label %29, label %30

29:                                               ; preds = %24, %6
  store i32 0, ptr %7, align 4
  store i32 1, ptr %17, align 4
  br label %47

30:                                               ; preds = %24
  %31 = load ptr, ptr %8, align 8, !tbaa !16
  %32 = icmp eq ptr %31, null
  br i1 %32, label %33, label %40

33:                                               ; preds = %30
  %34 = load ptr, ptr %14, align 8, !tbaa !26
  %35 = getelementptr inbounds nuw %struct.loader_data_st, ptr %34, i32 0, i32 0
  %36 = load ptr, ptr %35, align 8, !tbaa !22
  %37 = call ptr @get_loader_store(ptr noundef %36)
  store ptr %37, ptr %8, align 8, !tbaa !16
  %38 = icmp eq ptr %37, null
  br i1 %38, label %39, label %40

39:                                               ; preds = %33
  store i32 0, ptr %7, align 4
  store i32 1, ptr %17, align 4
  br label %47

40:                                               ; preds = %33, %30
  %41 = load ptr, ptr %8, align 8, !tbaa !16
  %42 = load ptr, ptr %10, align 8, !tbaa !31
  %43 = load i32, ptr %16, align 4, !tbaa !8
  %44 = load ptr, ptr %12, align 8, !tbaa !21
  %45 = load ptr, ptr %9, align 8, !tbaa !16
  %46 = call i32 @ossl_method_store_add(ptr noundef %41, ptr noundef %42, i32 noundef %43, ptr noundef %44, ptr noundef %45, ptr noundef @up_ref_loader, ptr noundef @free_loader)
  store i32 %46, ptr %7, align 4
  store i32 1, ptr %17, align 4
  br label %47

47:                                               ; preds = %40, %39, %29
  call void @llvm.lifetime.end.p0(i64 4, ptr %16) #6
  call void @llvm.lifetime.end.p0(i64 8, ptr %15) #6
  call void @llvm.lifetime.end.p0(i64 8, ptr %14) #6
  %48 = load i32, ptr %7, align 4
  ret i32 %48
}