; Function Attrs: nounwind uwtable
define internal i32 @put_loader_in_store(ptr noundef %0, ptr noundef %1, ptr noundef %2, ptr noundef %3, ptr noundef %4, ptr noundef readonly captures(none) %5) #2 {
  %7 = load ptr, ptr %5, align 8, !tbaa !13
  %8 = tail call ptr @ossl_namemap_stored(ptr noundef %7) #6
  %9 = icmp eq ptr %8, null
  br i1 %9, label %21, label %10

10:                                               ; preds = %6
  %11 = tail call i32 @ossl_namemap_name2num(ptr noundef nonnull %8, ptr noundef %3) #6
  %12 = icmp eq i32 %11, 0
  br i1 %12, label %21, label %13

13:                                               ; preds = %10
  %14 = icmp eq ptr %0, null
  br i1 %14, label %15, label %19

15:                                               ; preds = %13
  %16 = load ptr, ptr %5, align 8, !tbaa !13
  %17 = tail call ptr @ossl_lib_ctx_get_data(ptr noundef %16, i32 noundef 15) #6
  %18 = icmp eq ptr %17, null
  br i1 %18, label %21, label %19

19:                                               ; preds = %15, %13
  %.011 = phi ptr [ %17, %15 ], [ %0, %13 ]
  %20 = tail call i32 @ossl_method_store_add(ptr noundef nonnull %.011, ptr noundef %2, i32 noundef %11, ptr noundef %4, ptr noundef %1, ptr noundef nonnull @up_ref_loader, ptr noundef nonnull @free_loader) #6
  br label %21

21:                                               ; preds = %15, %6, %10, %19
  %.0 = phi i32 [ %20, %19 ], [ 0, %10 ], [ 0, %6 ], [ 0, %15 ]
  ret i32 %.0
}